target datalayout = "e-m:e-p270:32:32-p271:32:32-p272:64:64-i64:64-i128:128-f80:128-n8:16:32:64-S128"
target triple = "x86_64-pc-linux-gnu"

%struct._object = type { %union.anon, ptr }
%union.anon = type { i64 }
%struct._longobject = type { %struct._object, %struct._PyLongValue }
%struct._PyLongValue = type { i64, [1 x i32] }
%struct.anon = type { i32, i32 }

@.str.21 = private unnamed_addr constant [9 x i8] c"__exit__\00", align 1
@_Py_NoneStruct = external global %struct._object, align 8
@_Py_FalseStruct = external global %struct._longobject, align 8

; Function Attrs: alwaysinline nounwind uwtable
define internal i32 @_Py_IsImmortal(ptr noundef %0) #5 {
  %2 = alloca ptr, align 8
  store ptr %0, ptr %2, align 8, !tbaa !22
  %3 = load ptr, ptr %2, align 8, !tbaa !22
  %4 = getelementptr inbounds nuw %struct._object, ptr %3, i32 0, i32 0
  %5 = getelementptr inbounds nuw %struct.anon, ptr %4, i32 0, i32 0
  %6 = load i32, ptr %5, align 8, !tbaa !65
  %7 = icmp slt i32 %6, 0
  %8 = zext i1 %7 to i32
  ret i32 %8
}

; Function Attrs: alwaysinline nounwind uwtable
define internal void @Py_DECREF(ptr noundef %0) #5 {
  %2 = alloca ptr, align 8
  store ptr %0, ptr %2, align 8, !tbaa !22
  %3 = load ptr, ptr %2, align 8, !tbaa !22
  %4 = call i32 @_Py_IsImmortal(ptr noundef %3)
  %5 = icmp ne i32 %4, 0
  br i1 %5, label %6, label %7

6:                                                ; preds = %1
  br label %16

7:                                                ; preds = %1
  %8 = load ptr, ptr %2, align 8, !tbaa !22
  %9 = getelementptr inbounds nuw %struct._object, ptr %8, i32 0, i32 0
  %10 = getelementptr inbounds nuw %struct.anon, ptr %9, i32 0, i32 0
  %11 = load i32, ptr %10, align 8, !tbaa !65
  %12 = add i32 %11, -1
  store i32 %12, ptr %10, align 8, !tbaa !65
  %13 = icmp eq i32 %12, 0
  br i1 %13, label %14, label %16

14:                                               ; preds = %7
  %15 = load ptr, ptr %2, align 8, !tbaa !22
  call void @_Py_Dealloc(ptr noundef %15)
  br label %16

16:                                               ; preds = %6, %14, %7
  ret void
}

; Function Attrs: nounwind uwtable
define internal ptr @pysqlite_connection_exit_impl(ptr noundef %0, ptr noundef %1, ptr noundef %2, ptr noundef %3) #0 {
  %5 = alloca ptr, align 8
  %6 = alloca ptr, align 8
  %7 = alloca ptr, align 8
  %8 = alloca ptr, align 8
  %9 = alloca ptr, align 8
  %10 = alloca i32, align 4
  %11 = alloca ptr, align 8
  %12 = alloca ptr, align 8
  %13 = alloca i32, align 4
  store ptr %0, ptr %6, align 8, !tbaa !3
  store ptr %1, ptr %7, align 8, !tbaa !22
  store ptr %2, ptr %8, align 8, !tbaa !22
  store ptr %3, ptr %9, align 8, !tbaa !22
  call void @llvm.lifetime.start.p0(i64 4, ptr %10) #8
  store i32 0, ptr %10, align 4, !tbaa !30
  call void @llvm.lifetime.start.p0(i64 8, ptr %11) #8
  %14 = load ptr, ptr %7, align 8, !tbaa !22
  %15 = icmp eq ptr %14, @_Py_NoneStruct
  br i1 %15, label %16, label %25

16:                                               ; preds = %4
  %17 = load ptr, ptr %8, align 8, !tbaa !22
  %18 = icmp eq ptr %17, @_Py_NoneStruct
  br i1 %18, label %19, label %25

19:                                               ; preds = %16
  %20 = load ptr, ptr %9, align 8, !tbaa !22
  %21 = icmp eq ptr %20, @_Py_NoneStruct
  br i1 %21, label %22, label %25

22:                                               ; preds = %19
  store i32 1, ptr %10, align 4, !tbaa !30
  %23 = load ptr, ptr %6, align 8, !tbaa !3
  %24 = call ptr @pysqlite_connection_commit_impl(ptr noundef %23)
  store ptr %24, ptr %11, align 8, !tbaa !22
  br label %28

25:                                               ; preds = %19, %16, %4
  %26 = load ptr, ptr %6, align 8, !tbaa !3
  %27 = call ptr @pysqlite_connection_rollback_impl(ptr noundef %26)
  store ptr %27, ptr %11, align 8, !tbaa !22
  br label %28

28:                                               ; preds = %25, %22
  %29 = load ptr, ptr %11, align 8, !tbaa !22
  %30 = icmp eq ptr %29, null
  br i1 %30, label %31, label %47

31:                                               ; preds = %28
  %32 = load i32, ptr %10, align 4, !tbaa !30
  %33 = icmp ne i32 %32, 0
  br i1 %33, label %34, label %46

34:                                               ; preds = %31
  call void @llvm.lifetime.start.p0(i64 8, ptr %12) #8
  %35 = call ptr @PyErr_GetRaisedException()
  store ptr %35, ptr %12, align 8, !tbaa !22
  %36 = load ptr, ptr %6, align 8, !tbaa !3
  %37 = call ptr @pysqlite_connection_rollback_impl(ptr noundef %36)
  store ptr %37, ptr %11, align 8, !tbaa !22
  %38 = load ptr, ptr %11, align 8, !tbaa !22
  %39 = icmp eq ptr %38, null
  br i1 %39, label %40, label %42

40:                                               ; preds = %34
  %41 = load ptr, ptr %12, align 8, !tbaa !22
  call void @_PyErr_ChainExceptions1(ptr noundef %41)
  br label %45

42:                                               ; preds = %34
  %43 = load ptr, ptr %11, align 8, !tbaa !22
  call void @Py_DECREF(ptr noundef %43)
  %44 = load ptr, ptr %12, align 8, !tbaa !22
  call void @PyErr_SetRaisedException(ptr noundef %44)
  br label %45

45:                                               ; preds = %42, %40
  call void @llvm.lifetime.end.p0(i64 8, ptr %12) #8
  br label %46

46:                                               ; preds = %45, %31
  store ptr null, ptr %5, align 8
  store i32 1, ptr %13, align 4
  br label %49

47:                                               ; preds = %28
  %48 = load ptr, ptr %11, align 8, !tbaa !22
  call void @Py_DECREF(ptr noundef %48)
  store ptr @_Py_FalseStruct, ptr %5, align 8
  store i32 1, ptr %13, align 4
  br label %49

49:                                               ; preds = %47, %46
  call void @llvm.lifetime.end.p0(i64 8, ptr %11) #8
  call void @llvm.lifetime.end.p0(i64 4, ptr %10) #8
  %50 = load ptr, ptr %5, align 8
  ret ptr %50
}

; Function Attrs: nounwind uwtable
define internal ptr @pysqlite_connection_exit(ptr noundef %0, ptr noundef %1, i64 noundef %2) #0 {
  %4 = alloca ptr, align 8
  %5 = alloca ptr, align 8
  %6 = alloca i64, align 8
  %7 = alloca ptr, align 8
  %8 = alloca ptr, align 8
  %9 = alloca ptr, align 8
  %10 = alloca ptr, align 8
  store ptr %0, ptr %4, align 8, !tbaa !22
  store ptr %1, ptr %5, align 8, !tbaa !43
  store i64 %2, ptr %6, align 8, !tbaa !39
  call void @llvm.lifetime.start.p0(i64 8, ptr %7) #8
  store ptr null, ptr %7, align 8, !tbaa !22
  call void @llvm.lifetime.start.p0(i64 8, ptr %8) #8
  call void @llvm.lifetime.start.p0(i64 8, ptr %9) #8
  call void @llvm.lifetime.start.p0(i64 8, ptr %10) #8
  %11 = load i64, ptr %6, align 8, !tbaa !39
  %12 = icmp sle i64 3, %11
  br i1 %12, label %13, label %16

13:                                               ; preds = %3
  %14 = load i64, ptr %6, align 8, !tbaa !39
  %15 = icmp sle i64 %14, 3
  br i1 %15, label %21, label %16

16:                                               ; preds = %13, %3
  %17 = load i64, ptr %6, align 8, !tbaa !39
  %18 = call i32 @_PyArg_CheckPositional(ptr noundef @.str.21, i64 noundef %17, i64 noundef 3, i64 noundef 3)
  %19 = icmp ne i32 %18, 0
  br i1 %19, label %21, label %20

20:                                               ; preds = %16
  br label %36

21:                                               ; preds = %16, %13
  %22 = load ptr, ptr %5, align 8, !tbaa !43
  %23 = getelementptr ptr, ptr %22, i64 0
  %24 = load ptr, ptr %23, align 8, !tbaa !22
  store ptr %24, ptr %8, align 8, !tbaa !22
  %25 = load ptr, ptr %5, align 8, !tbaa !43
  %26 = getelementptr ptr, ptr %25, i64 1
  %27 = load ptr, ptr %26, align 8, !tbaa !22
  store ptr %27, ptr %9, align 8, !tbaa !22
  %28 = load ptr, ptr %5, align 8, !tbaa !43
  %29 = getelementptr ptr, ptr %28, i64 2
  %30 = load ptr, ptr %29, align 8, !tbaa !22
  store ptr %30, ptr %10, align 8, !tbaa !22
  %31 = load ptr, ptr %4, align 8, !tbaa !22
  %32 = load ptr, ptr %8, align 8, !tbaa !22
  %33 = load ptr, ptr %9, align 8, !tbaa !22
  %34 = load ptr, ptr %10, align 8, !tbaa !22
  %35 = call ptr @pysqlite_connection_exit_impl(ptr noundef %31, ptr noundef %32, ptr noundef %33, ptr noundef %34)
  store ptr %35, ptr %7, align 8, !tbaa !22
  br label %36

36:                                               ; preds = %21, %20
  %37 = load ptr, ptr %7, align 8, !tbaa !22
  call void @llvm.lifetime.end.p0(i64 8, ptr %10) #8
  call void @llvm.lifetime.end.p0(i64 8, ptr %9) #8
  call void @llvm.lifetime.end.p0(i64 8, ptr %8) #8
  call void @llvm.lifetime.end.p0(i64 8, ptr %7) #8
  ret ptr %37
}