; Function Attrs: nounwind uwtable
define internal noundef ptr @pysqlite_connection_exit(ptr noundef readonly captures(none) %0, ptr noundef readonly captures(none) %1, i64 noundef %2) #0 {
  %or.cond = icmp eq i64 %2, 3
  br i1 %or.cond, label %6, label %4

4:                                                ; preds = %3
  %5 = tail call i32 @_PyArg_CheckPositional(ptr noundef nonnull @.str.21, i64 noundef %2, i64 noundef 3, i64 noundef 3) #7
  %.not = icmp eq i32 %5, 0
  br i1 %.not, label %pysqlite_connection_exit_impl.exit, label %6

6:                                                ; preds = %3, %4
  %7 = load ptr, ptr %1, align 8, !tbaa !25
  %8 = getelementptr i8, ptr %1, i64 8
  %9 = load ptr, ptr %8, align 8, !tbaa !25
  %10 = getelementptr i8, ptr %1, i64 16
  %11 = load ptr, ptr %10, align 8, !tbaa !25
  %12 = icmp ne ptr %7, @_Py_NoneStruct
  %13 = icmp ne ptr %9, @_Py_NoneStruct
  %or.cond.not21.i = or i1 %12, %13
  %14 = icmp ne ptr %11, @_Py_NoneStruct
  %or.cond3.not.i = or i1 %or.cond.not21.i, %14
  br i1 %or.cond3.not.i, label %15, label %.thread.i

15:                                               ; preds = %6
  %16 = tail call fastcc ptr @pysqlite_connection_rollback_impl(ptr noundef readonly %0)
  %17 = icmp eq ptr %16, null
  br i1 %17, label %pysqlite_connection_exit_impl.exit, label %30

.thread.i:                                        ; preds = %6
  %18 = tail call fastcc ptr @pysqlite_connection_commit_impl(ptr noundef readonly %0)
  %19 = icmp eq ptr %18, null
  br i1 %19, label %.thread27.i, label %30

.thread27.i:                                      ; preds = %.thread.i
  %20 = tail call ptr @PyErr_GetRaisedException() #7
  %21 = tail call fastcc ptr @pysqlite_connection_rollback_impl(ptr noundef readonly %0)
  %22 = icmp eq ptr %21, null
  br i1 %22, label %23, label %24

23:                                               ; preds = %.thread27.i
  tail call void @_PyErr_ChainExceptions1(ptr noundef %20) #7
  br label %pysqlite_connection_exit_impl.exit

24:                                               ; preds = %.thread27.i
  %25 = load i32, ptr %21, align 8, !tbaa !34
  %.not.i22.i = icmp sgt i32 %25, -1
  br i1 %.not.i22.i, label %26, label %Py_DECREF.exit23.i

26:                                               ; preds = %24
  %27 = add nsw i32 %25, -1
  store i32 %27, ptr %21, align 8, !tbaa !34
  %28 = icmp eq i32 %27, 0
  br i1 %28, label %29, label %Py_DECREF.exit23.i

29:                                               ; preds = %26
  tail call void @_Py_Dealloc(ptr noundef nonnull %21) #7
  br label %Py_DECREF.exit23.i

Py_DECREF.exit23.i:                               ; preds = %29, %26, %24
  tail call void @PyErr_SetRaisedException(ptr noundef %20) #7
  br label %pysqlite_connection_exit_impl.exit

30:                                               ; preds = %.thread.i, %15
  %.01626.i = phi ptr [ %18, %.thread.i ], [ %16, %15 ]
  %31 = load i32, ptr %.01626.i, align 8, !tbaa !34
  %.not.i.i = icmp sgt i32 %31, -1
  br i1 %.not.i.i, label %32, label %pysqlite_connection_exit_impl.exit

32:                                               ; preds = %30
  %33 = add nsw i32 %31, -1
  store i32 %33, ptr %.01626.i, align 8, !tbaa !34
  %34 = icmp eq i32 %33, 0
  br i1 %34, label %35, label %pysqlite_connection_exit_impl.exit

35:                                               ; preds = %32
  tail call void @_Py_Dealloc(ptr noundef nonnull %.01626.i) #7
  br label %pysqlite_connection_exit_impl.exit

pysqlite_connection_exit_impl.exit:               ; preds = %35, %32, %30, %Py_DECREF.exit23.i, %23, %15, %4
  %.0 = phi ptr [ null, %4 ], [ null, %23 ], [ null, %Py_DECREF.exit23.i ], [ @_Py_FalseStruct, %30 ], [ @_Py_FalseStruct, %32 ], [ @_Py_FalseStruct, %35 ], [ null, %15 ]
  ret ptr %.0
}